Certificate:
    Data:
        Version: 3 (0x2)
        Serial Number: 1 (0x1)
    Signature Algorithm: sha1WithRSAEncryption
        Issuer: C=IT, ST=RM, L=Rome, O=SP Sistemi, OU=SPS, CN=SAMLphp-idp/name=SAMLphp-idp/emailAddress=mail@host.domain
        Validity
            Not Before: May 17 11:40:24 2021 GMT
            Not After : May 15 11:40:24 2031 GMT
        Subject: C=IT, ST=RM, L=Rome, O=SP Sistemi, OU=SPS, CN=10.128.0.10/name=SAMLphp-idp/emailAddress=mail@host.domain
        Subject Public Key Info:
            Public Key Algorithm: rsaEncryption
                Public-Key: (4096 bit)
                Modulus:
                    00:d5:df:00:80:d2:18:91:4c:31:92:23:7f:85:87:
                    b6:92:20:82:41:1d:d8:9b:e9:76:67:5b:8e:7f:3c:
                    ea:36:d4:f7:1d:92:61:cf:cd:ab:15:f1:fe:c4:17:
                    d1:3e:72:8c:88:a1:de:c8:c8:ee:42:f3:87:c1:4c:
                    31:45:f0:97:06:da:49:c5:6e:70:20:a5:bb:ed:7a:
                    98:e7:cf:18:91:4d:1a:fd:ed:a5:91:14:09:35:90:
                    a0:c7:39:69:f4:f6:1f:00:ef:50:11:6a:05:78:fa:
                    2e:9c:7b:14:06:e5:1d:39:f2:eb:fc:37:ba:2b:44:
                    cd:36:9f:8a:f8:c2:4d:24:de:16:8b:ee:1e:2f:28:
                    bd:fe:15:05:21:dc:21:66:f3:c6:d6:74:78:2f:eb:
                    04:4f:5c:0b:71:a1:98:23:22:73:3b:d2:3b:c9:cc:
                    d4:af:b3:c2:9a:6e:f0:5d:b8:e1:82:07:28:6f:4b:
                    31:cf:31:5d:a7:b5:1a:37:b1:fc:d4:e3:b3:96:5b:
                    02:27:d1:d4:db:f9:10:8e:a3:f3:8f:f1:7a:ff:55:
                    76:38:f7:fd:dc:93:35:54:4c:58:f7:87:1e:3e:59:
                    92:28:c7:06:2a:a9:5e:e9:0f:d8:16:86:64:3e:cd:
                    b1:f4:19:75:81:1a:3e:47:6f:04:3d:00:08:0d:ac:
                    b8:69:60:e6:58:39:c4:02:5d:15:04:26:8c:72:96:
                    d1:43:4b:71:d9:e8:48:28:80:d2:66:a0:88:96:97:
                    17:65:a8:63:f6:ff:78:6d:0e:56:b4:76:f8:12:08:
                    97:dc:a0:66:27:ba:98:80:b3:e1:6d:e5:43:9d:93:
                    c5:35:1d:c7:f9:c1:10:72:97:ec:80:5b:7b:95:12:
                    d2:91:2b:14:fc:5e:60:ad:c1:88:fc:16:94:07:63:
                    7f:8a:5d:8e:68:f4:7a:0c:4a:88:a9:43:7a:75:47:
                    fb:45:42:0f:96:ed:33:fe:62:e8:dd:64:cf:82:ec:
                    eb:ee:ca:c5:18:8b:24:58:75:78:c7:2f:3f:e9:c8:
                    c6:cf:fc:d3:f1:47:12:fc:7e:bc:9e:bc:dd:b3:dc:
                    d5:ef:25:ff:99:67:4b:64:9f:ed:0b:a0:da:dd:c8:
                    98:03:47:1a:8b:10:94:68:04:a9:cf:be:02:f4:1d:
                    87:65:e6:3e:43:e1:ce:08:03:44:82:c3:a4:04:bc:
                    03:a5:3d:9c:44:2f:eb:b7:ca:a5:48:95:bf:5c:dd:
                    cd:9e:75:85:f9:3d:96:7e:58:42:86:f2:f9:26:84:
                    35:21:7b:81:96:14:0b:e0:17:14:8c:9c:b3:cd:77:
                    23:3d:33:16:ce:23:10:b0:a3:56:7f:0d:8e:46:e6:
                    a3:ae:63
                Exponent: 65537 (0x10001)
        X509v3 extensions:
            X509v3 Basic Constraints: 
                CA:FALSE
            Netscape Cert Type: 
                SSL Server
            Netscape Comment: 
                Easy-RSA Generated Server Certificate
            X509v3 Subject Key Identifier: 
                4C:DD:FE:C2:61:1A:FD:4B:7B:43:94:30:C6:30:B6:7F:1C:4F:5E:E8
            X509v3 Authority Key Identifier: 
                keyid:46:DD:CB:B3:78:02:AB:EA:DE:F9:CB:CB:A5:52:F1:22:7E:DE:22:F1
                DirName:/C=IT/ST=RM/L=Rome/O=SP Sistemi/OU=SPS/CN=SAMLphp-idp/name=SAMLphp-idp/emailAddress=mail@host.domain
                serial:AA:DC:52:14:F9:CF:F4:49

            X509v3 Extended Key Usage: 
                TLS Web Server Authentication
            X509v3 Key Usage: 
                Digital Signature, Key Encipherment
    Signature Algorithm: sha1WithRSAEncryption
         b4:1e:67:ab:da:85:f2:02:19:49:88:1b:3c:27:29:1d:fd:b2:
         ce:c0:16:4e:d7:f8:32:d7:5d:fc:08:fb:6e:ac:f5:23:8b:88:
         37:97:bb:2d:bf:c9:05:3a:6f:7b:29:8e:11:67:9e:83:b8:e4:
         02:87:26:69:d5:5a:c6:f8:14:32:ec:e7:26:71:63:74:50:fa:
         08:ee:8d:5f:1a:db:a8:a5:2c:25:4d:c0:52:b6:65:4f:f9:05:
         6c:14:5f:ec:ba:93:9f:53:cf:85:3a:f7:71:bd:64:22:d1:53:
         8f:9f:25:65:6c:7f:aa:41:6c:4f:7f:4e:96:c1:07:5d:e9:92:
         df:fd:1e:d7:29:d4:d7:cb:43:a8:43:42:36:cf:b6:52:f1:4f:
         f4:1c:b8:fe:c7:53:5a:59:c1:a4:d1:86:e5:54:5d:aa:87:83:
         a3:c4:04:7f:7b:b4:6d:51:09:06:a9:86:88:85:68:09:c9:52:
         c5:a2:66:30:c5:0b:1b:04:31:08:64:f9:dd:ac:6a:a1:d2:f9:
         e5:c8:5b:d6:91:bd:ce:0c:b9:7d:45:fb:64:bb:5e:bd:a8:dc:
         80:7c:cc:b6:c2:4c:7c:49:a3:e4:a4:0a:8d:76:e9:7c:ff:d7:
         7d:06:b9:70:7e:7b:20:ed:9a:c9:95:96:61:85:1e:ae:af:51:
         a5:b2:f4:34:73:49:a9:36:76:21:3b:24:11:84:29:4d:66:b0:
         61:4c:ec:fd:a7:cf:c0:46:28:c9:d6:b6:8f:a2:7b:db:60:99:
         aa:4c:77:87:5a:a8:c6:77:8a:66:5c:e0:5f:3c:0f:c6:2e:a3:
         53:c5:01:a8:23:b2:08:02:97:1f:09:d5:62:1b:81:8b:6f:4c:
         58:16:15:41:ba:cd:77:e1:b0:76:29:84:56:e6:01:28:6a:cb:
         d0:0e:de:8e:e0:6d:14:03:bb:85:d0:b8:d1:fa:52:71:61:a4:
         f7:c7:38:e7:cb:36:50:5b:4d:fa:95:e1:9d:ac:b0:5a:9c:df:
         34:58:da:d4:08:85:c7:20:6a:37:0e:6d:f9:0a:71:bc:e4:55:
         2e:b3:9c:d4:e7:ce:c8:4f:67:4c:f8:fe:72:5a:5a:f2:0c:55:
         85:45:75:2d:52:fe:b2:4e:04:61:31:71:18:95:61:c5:0d:b7:
         94:51:5b:fc:23:62:26:3e:30:bc:b7:2e:0f:56:4f:f9:53:3b:
         c7:41:f7:29:ab:10:b3:5e:5b:db:62:fd:f2:31:f9:d5:b1:54:
         c0:1e:97:a5:5a:39:97:71:f1:d1:d4:2c:ee:17:d2:78:71:b1:
         4e:9f:7b:66:41:2d:a7:9d:c9:b4:b1:d4:e1:02:cd:f6:c6:1e:
         50:97:9d:87:86:59:8e:fa
-----BEGIN CERTIFICATE-----
MIIHGzCCBQOgAwIBAgIBATANBgkqhkiG9w0BAQUFADCBmTELMAkGA1UEBhMCSVQx
CzAJBgNVBAgTAlJNMQ0wCwYDVQQHEwRSb21lMRMwEQYDVQQKEwpTUCBTaXN0ZW1p
MQwwCgYDVQQLEwNTUFMxFDASBgNVBAMTC1NBTUxwaHAtaWRwMRQwEgYDVQQpEwtT
QU1McGhwLWlkcDEfMB0GCSqGSIb3DQEJARYQbWFpbEBob3N0LmRvbWFpbjAeFw0y
MTA1MTcxMTQwMjRaFw0zMTA1MTUxMTQwMjRaMIGZMQswCQYDVQQGEwJJVDELMAkG
A1UECBMCUk0xDTALBgNVBAcTBFJvbWUxEzARBgNVBAoTClNQIFNpc3RlbWkxDDAK
BgNVBAsTA1NQUzEUMBIGA1UEAxMLMTAuMTI4LjAuMTAxFDASBgNVBCkTC1NBTUxw
aHAtaWRwMR8wHQYJKoZIhvcNAQkBFhBtYWlsQGhvc3QuZG9tYWluMIICIjANBgkq
hkiG9w0BAQEFAAOCAg8AMIICCgKCAgEA1d8AgNIYkUwxkiN/hYe2kiCCQR3Ym+l2
Z1uOfzzqNtT3HZJhz82rFfH+xBfRPnKMiKHeyMjuQvOHwUwxRfCXBtpJxW5wIKW7
7XqY588YkU0a/e2lkRQJNZCgxzlp9PYfAO9QEWoFePounHsUBuUdOfLr/De6K0TN
Np+K+MJNJN4Wi+4eLyi9/hUFIdwhZvPG1nR4L+sET1wLcaGYIyJzO9I7yczUr7PC
mm7wXbjhggcob0sxzzFdp7UaN7H81OOzllsCJ9HU2/kQjqPzj/F6/1V2OPf93JM1
VExY94cePlmSKMcGKqle6Q/YFoZkPs2x9Bl1gRo+R28EPQAIDay4aWDmWDnEAl0V
BCaMcpbRQ0tx2ehIKIDSZqCIlpcXZahj9v94bQ5WtHb4EgiX3KBmJ7qYgLPhbeVD
nZPFNR3H+cEQcpfsgFt7lRLSkSsU/F5grcGI/BaUB2N/il2OaPR6DEqIqUN6dUf7
RUIPlu0z/mLo3WTPguzr7srFGIskWHV4xy8/6cjGz/zT8UcS/H68nrzds9zV7yX/
mWdLZJ/tC6Da3ciYA0caixCUaASpz74C9B2HZeY+Q+HOCANEgsOkBLwDpT2cRC/r
t8qlSJW/XN3NnnWF+T2WflhChvL5JoQ1IXuBlhQL4BcUjJyzzXcjPTMWziMQsKNW
fw2ORuajrmMCAwEAAaOCAWowggFmMAkGA1UdEwQCMAAwEQYJYIZIAYb4QgEBBAQD
AgZAMDQGCWCGSAGG+EIBDQQnFiVFYXN5LVJTQSBHZW5lcmF0ZWQgU2VydmVyIENl
cnRpZmljYXRlMB0GA1UdDgQWBBRM3f7CYRr9S3tDlDDGMLZ/HE9e6DCBzgYDVR0j
BIHGMIHDgBRG3cuzeAKr6t75y8ulUvEift4i8aGBn6SBnDCBmTELMAkGA1UEBhMC
SVQxCzAJBgNVBAgTAlJNMQ0wCwYDVQQHEwRSb21lMRMwEQYDVQQKEwpTUCBTaXN0
ZW1pMQwwCgYDVQQLEwNTUFMxFDASBgNVBAMTC1NBTUxwaHAtaWRwMRQwEgYDVQQp
EwtTQU1McGhwLWlkcDEfMB0GCSqGSIb3DQEJARYQbWFpbEBob3N0LmRvbWFpboIJ
AKrcUhT5z/RJMBMGA1UdJQQMMAoGCCsGAQUFBwMBMAsGA1UdDwQEAwIFoDANBgkq
hkiG9w0BAQUFAAOCAgEAtB5nq9qF8gIZSYgbPCcpHf2yzsAWTtf4Mtdd/Aj7bqz1
I4uIN5e7Lb/JBTpveymOEWeeg7jkAocmadVaxvgUMuznJnFjdFD6CO6NXxrbqKUs
JU3AUrZlT/kFbBRf7LqTn1PPhTr3cb1kItFTj58lZWx/qkFsT39OlsEHXemS3/0e
1ynU18tDqENCNs+2UvFP9By4/sdTWlnBpNGG5VRdqoeDo8QEf3u0bVEJBqmGiIVo
CclSxaJmMMULGwQxCGT53axqodL55chb1pG9zgy5fUX7ZLtevajcgHzMtsJMfEmj
5KQKjXbpfP/XfQa5cH57IO2ayZWWYYUerq9RpbL0NHNJqTZ2ITskEYQpTWawYUzs
/afPwEYoyda2j6J722CZqkx3h1qoxneKZlzgXzwPxi6jU8UBqCOyCAKXHwnVYhuB
i29MWBYVQbrNd+GwdimEVuYBKGrL0A7ejuBtFAO7hdC40fpScWGk98c458s2UFtN
+pXhnaywWpzfNFja1AiFxyBqNw5t+QpxvORVLrOc1OfOyE9nTPj+clpa8gxVhUV1
LVL+sk4EYTFxGJVhxQ23lFFb/CNiJj4wvLcuD1ZP+VM7x0H3KasQs15b22L98jH5
1bFUwB6XpVo5l3Hx0dQs7hfSeHGxTp97ZkEtp53JtLHU4QLN9sYeUJedh4ZZjvo=
-----END CERTIFICATE-----
-----BEGIN CERTIFICATE-----
MIIGujCCBKKgAwIBAgIJAKrcUhT5z/RJMA0GCSqGSIb3DQEBCwUAMIGZMQswCQYD
VQQGEwJJVDELMAkGA1UECBMCUk0xDTALBgNVBAcTBFJvbWUxEzARBgNVBAoTClNQ
IFNpc3RlbWkxDDAKBgNVBAsTA1NQUzEUMBIGA1UEAxMLU0FNTHBocC1pZHAxFDAS
BgNVBCkTC1NBTUxwaHAtaWRwMR8wHQYJKoZIhvcNAQkBFhBtYWlsQGhvc3QuZG9t
YWluMB4XDTIxMDUxNzExMzk0M1oXDTMxMDUxNTExMzk0M1owgZkxCzAJBgNVBAYT
AklUMQswCQYDVQQIEwJSTTENMAsGA1UEBxMEUm9tZTETMBEGA1UEChMKU1AgU2lz
dGVtaTEMMAoGA1UECxMDU1BTMRQwEgYDVQQDEwtTQU1McGhwLWlkcDEUMBIGA1UE
KRMLU0FNTHBocC1pZHAxHzAdBgkqhkiG9w0BCQEWEG1haWxAaG9zdC5kb21haW4w
ggIiMA0GCSqGSIb3DQEBAQUAA4ICDwAwggIKAoICAQDnO15udIBbgrBe4+HkzOe1
0iZLtELR6FhpfzXLws0/zhTSL2SXEHJBITQDTfTV8WoJOse21LDmzigLopf86mlJ
2PmpkAL7AaJ4RUQNPD84+2xTCxMi6RC0qv7U8o6QZvDXFfz2cDKitKuQuvTRpMwc
NvbJWi7TDQDtdsAj+k2Gvuzk2kiSa25VXyu3g0IlVxJ0INtPBQW2iKirkG9d+Zkz
d0gmoUhN3cTvYe3bG+NdHcA8P6Tas8Q2t23bn7h7jJEMI8E3tJXKe/NHe5QvF4sJ
q6NevOz/zHhM1rmopeSO3fUfyl2cxrUhT6tLhEEGR5NDheI+kdYaPNci73mkxmPH
QYSvib0gJnJiZ/oMqnhRFhVtGUFIdSfIbwcXUHoPKFJDF6f+07ZPpS0J+pwRqNoo
HsMO/m+L70B7mk7g8JKAmdIXnBWzrXLSPzmDienMdvZzUSntKk+3i2OuoihdFkXw
ZAO86P5QZXcjSsOoff5E6rwikdYXWT69bG11xvu5waF06kILi8hx2JwiZgLRYfdH
NVW6L7q6qjZHu5conu9y0vqzQoI0gpYf3j3fM5GJGes1TojJvbdvoeyGvT2jhmet
EppLsucB2mU3qC1757sWMZ2MdvKablOzAVOu0rYwylyn6Ifu9FC+9h969b1d/R73
+rZDYY1JASkMjaXHG0LcuwIDAQABo4IBATCB/jAdBgNVHQ4EFgQURt3Ls3gCq+re
+cvLpVLxIn7eIvEwgc4GA1UdIwSBxjCBw4AURt3Ls3gCq+re+cvLpVLxIn7eIvGh
gZ+kgZwwgZkxCzAJBgNVBAYTAklUMQswCQYDVQQIEwJSTTENMAsGA1UEBxMEUm9t
ZTETMBEGA1UEChMKU1AgU2lzdGVtaTEMMAoGA1UECxMDU1BTMRQwEgYDVQQDEwtT
QU1McGhwLWlkcDEUMBIGA1UEKRMLU0FNTHBocC1pZHAxHzAdBgkqhkiG9w0BCQEW
EG1haWxAaG9zdC5kb21haW6CCQCq3FIU+c/0STAMBgNVHRMEBTADAQH/MA0GCSqG
SIb3DQEBCwUAA4ICAQBLPaTdogl4NFdQVW7VilCBewxoPO+fFsh0VlO3qgCWyE/p
qB2Gok5bABx0+PHdfmcZ+4U//rcz7zVsJuv2zi18mO0zKbG43bp7eb2/9qGkhfsP
KRsDqzvoXGn9C32heeHH8hqvOL7WzllPx/Phy8YYBmubglLBQle1fIvcxLeF6aZB
2lw3C4sD9RFPi69gIeoSyvatUIXy6D2tXMg/LGHnKxLph+sVTeud8pQqUSuUz8gf
R5RvxycbPzZ0ThDlBPDl/SFDfQV/0aoNeWlkep2Ft9YjLrNmy6UX3E39XtMFreOt
uM2zHOA56ALEVJMumv6U2IPzg7LqoiGxQ0UjuXAXRB+IfbK5B6O6RpviZ2YGC2vv
8Zug4JaEHST5uSXw0vqYMpLvFHJjYq3GRCd08QsjstU+/NIjEarfHoool0vi+MWE
pIb69lZtwOKq6e1wkYdQy7e194MkghGsov/0DkU5ciQQ1N+lMDBRDkQwdo1qlCzJ
cNyoMLl9k+glEdYfk9SV70heSKLCGVFLt0MbA3tSBQ0poJyyv7wL6y7qveBPhSam
MJ96eGbIYOTpwQ2JV3iYCFSPlb03y2zdByzotrhrWk0gqaMWw0wmRvVfRTOkKAhO
gCwW9k8Yb8bAoBQXjJNvC4frF9fnyAIipyVmiwog53f1+8f5MR6jmJE7Geql3g==
-----END CERTIFICATE-----
